target datalayout = "e-m:e-p270:32:32-p271:32:32-p272:64:64-i64:64-i128:128-f80:128-n8:16:32:64-S128"
target triple = "x86_64-pc-linux-gnu"

%struct.TuplesortPublic = type { ptr, ptr, ptr, ptr, ptr, ptr, ptr, ptr, ptr, i8, i32, ptr, ptr, i32, i8, ptr }
%struct.SortSupportData = type { ptr, i32, i8, i8, i16, ptr, ptr, i8, ptr, ptr, ptr }
%struct.HeapTupleData = type { i32, %struct.ItemPointerData, i32, ptr }
%struct.ItemPointerData = type { %struct.BlockIdData, i16 }
%struct.BlockIdData = type { i16, i16 }
%struct.SortTuple = type { ptr, i64, i8, i32 }
%struct.TuplesortClusterArg = type { ptr, ptr, ptr }
%struct.IndexInfo = type { i32, i32, i32, [32 x i16], ptr, ptr, ptr, ptr, ptr, ptr, ptr, ptr, ptr, ptr, i8, i8, i8, i8, i8, i8, i8, i8, i8, i32, i32, ptr, ptr }

@CurrentMemoryContext = external global ptr, align 8

; Function Attrs: inlinehint nounwind uwtable
define internal ptr @MemoryContextSwitchTo(ptr noundef %0) #3 {
  %2 = alloca ptr, align 8
  %3 = alloca ptr, align 8
  store ptr %0, ptr %2, align 8
  call void @llvm.lifetime.start.p0(i64 8, ptr %3) #6
  %4 = load ptr, ptr @CurrentMemoryContext, align 8
  store ptr %4, ptr %3, align 8
  %5 = load ptr, ptr %2, align 8
  store ptr %5, ptr @CurrentMemoryContext, align 8
  %6 = load ptr, ptr %3, align 8
  call void @llvm.lifetime.end.p0(i64 8, ptr %3) #6
  ret ptr %6
}

; Function Attrs: nounwind uwtable
define dso_local void @tuplesort_putheaptuple(ptr noundef %0, ptr noundef %1) #0 {
  %3 = alloca ptr, align 8
  %4 = alloca ptr, align 8
  %5 = alloca %struct.SortTuple, align 8
  %6 = alloca ptr, align 8
  %7 = alloca ptr, align 8
  %8 = alloca ptr, align 8
  %9 = alloca i64, align 8
  store ptr %0, ptr %3, align 8
  store ptr %1, ptr %4, align 8
  call void @llvm.lifetime.start.p0(i64 24, ptr %5) #6
  call void @llvm.lifetime.start.p0(i64 8, ptr %6) #6
  %10 = load ptr, ptr %3, align 8
  store ptr %10, ptr %6, align 8
  call void @llvm.lifetime.start.p0(i64 8, ptr %7) #6
  %11 = load ptr, ptr %6, align 8
  %12 = getelementptr inbounds nuw %struct.TuplesortPublic, ptr %11, i32 0, i32 8
  %13 = load ptr, ptr %12, align 8
  %14 = call ptr @MemoryContextSwitchTo(ptr noundef %13)
  store ptr %14, ptr %7, align 8
  call void @llvm.lifetime.start.p0(i64 8, ptr %8) #6
  %15 = load ptr, ptr %6, align 8
  %16 = getelementptr inbounds nuw %struct.TuplesortPublic, ptr %15, i32 0, i32 15
  %17 = load ptr, ptr %16, align 8
  store ptr %17, ptr %8, align 8
  call void @llvm.lifetime.start.p0(i64 8, ptr %9) #6
  %18 = load ptr, ptr %4, align 8
  %19 = call ptr @heap_copytuple(ptr noundef %18)
  store ptr %19, ptr %4, align 8
  %20 = load ptr, ptr %4, align 8
  %21 = getelementptr inbounds nuw %struct.SortTuple, ptr %5, i32 0, i32 0
  store ptr %20, ptr %21, align 8
  %22 = load ptr, ptr %6, align 8
  %23 = getelementptr inbounds nuw %struct.TuplesortPublic, ptr %22, i32 0, i32 9
  %24 = load i8, ptr %23, align 8, !range !4, !noundef !5
  %25 = trunc i8 %24 to i1
  br i1 %25, label %26, label %41

26:                                               ; preds = %2
  %27 = load ptr, ptr %4, align 8
  %28 = load ptr, ptr %8, align 8
  %29 = getelementptr inbounds nuw %struct.TuplesortClusterArg, ptr %28, i32 0, i32 1
  %30 = load ptr, ptr %29, align 8
  %31 = getelementptr inbounds nuw %struct.IndexInfo, ptr %30, i32 0, i32 3
  %32 = getelementptr inbounds [32 x i16], ptr %31, i64 0, i64 0
  %33 = load i16, ptr %32, align 4
  %34 = sext i16 %33 to i32
  %35 = load ptr, ptr %8, align 8
  %36 = getelementptr inbounds nuw %struct.TuplesortClusterArg, ptr %35, i32 0, i32 0
  %37 = load ptr, ptr %36, align 8
  %38 = getelementptr inbounds nuw %struct.SortTuple, ptr %5, i32 0, i32 2
  %39 = call i64 @heap_getattr(ptr noundef %27, i32 noundef %34, ptr noundef %37, ptr noundef %38)
  %40 = getelementptr inbounds nuw %struct.SortTuple, ptr %5, i32 0, i32 1
  store i64 %39, ptr %40, align 8
  br label %41

41:                                               ; preds = %26, %2
  %42 = load ptr, ptr %6, align 8
  %43 = getelementptr inbounds nuw %struct.TuplesortPublic, ptr %42, i32 0, i32 13
  %44 = load i32, ptr %43, align 8
  %45 = and i32 %44, 2
  %46 = icmp eq i32 %45, 0
  br i1 %46, label %47, label %55

47:                                               ; preds = %41
  %48 = load ptr, ptr %4, align 8
  %49 = getelementptr inbounds nuw %struct.HeapTupleData, ptr %48, i32 0, i32 0
  %50 = load i32, ptr %49, align 8
  %51 = zext i32 %50 to i64
  %52 = add i64 24, %51
  %53 = add i64 %52, 7
  %54 = and i64 %53, -8
  store i64 %54, ptr %9, align 8
  br label %58

55:                                               ; preds = %41
  %56 = load ptr, ptr %4, align 8
  %57 = call i64 @GetMemoryChunkSpace(ptr noundef %56)
  store i64 %57, ptr %9, align 8
  br label %58

58:                                               ; preds = %55, %47
  %59 = load ptr, ptr %3, align 8
  %60 = load ptr, ptr %6, align 8
  %61 = getelementptr inbounds nuw %struct.TuplesortPublic, ptr %60, i32 0, i32 9
  %62 = load i8, ptr %61, align 8, !range !4, !noundef !5
  %63 = trunc i8 %62 to i1
  br i1 %63, label %64, label %76

64:                                               ; preds = %58
  %65 = load ptr, ptr %6, align 8
  %66 = getelementptr inbounds nuw %struct.TuplesortPublic, ptr %65, i32 0, i32 11
  %67 = load ptr, ptr %66, align 8
  %68 = getelementptr inbounds nuw %struct.SortSupportData, ptr %67, i32 0, i32 8
  %69 = load ptr, ptr %68, align 8
  %70 = icmp ne ptr %69, null
  br i1 %70, label %71, label %76

71:                                               ; preds = %64
  %72 = getelementptr inbounds nuw %struct.SortTuple, ptr %5, i32 0, i32 2
  %73 = load i8, ptr %72, align 8, !range !4, !noundef !5
  %74 = trunc i8 %73 to i1
  %75 = xor i1 %74, true
  br label %76

76:                                               ; preds = %71, %64, %58
  %77 = phi i1 [ false, %64 ], [ false, %58 ], [ %75, %71 ]
  %78 = load i64, ptr %9, align 8
  call void @tuplesort_puttuple_common(ptr noundef %59, ptr noundef %5, i1 noundef zeroext %77, i64 noundef %78)
  %79 = load ptr, ptr %7, align 8
  %80 = call ptr @MemoryContextSwitchTo(ptr noundef %79)
  call void @llvm.lifetime.end.p0(i64 8, ptr %9) #6
  call void @llvm.lifetime.end.p0(i64 8, ptr %8) #6
  call void @llvm.lifetime.end.p0(i64 8, ptr %7) #6
  call void @llvm.lifetime.end.p0(i64 8, ptr %6) #6
  call void @llvm.lifetime.end.p0(i64 24, ptr %5) #6
  ret void
}