; Function Attrs: nounwind uwtable
define dso_local void @tuplesort_putheaptuple(ptr noundef %0, ptr noundef %1) local_unnamed_addr #0 {
  %3 = alloca %struct.SortTuple, align 8
  call void @llvm.lifetime.start.p0(i64 24, ptr nonnull %3) #12
  %4 = getelementptr inbounds nuw i8, ptr %0, i64 64
  %5 = load ptr, ptr %4, align 8
  %6 = load ptr, ptr @CurrentMemoryContext, align 8
  store ptr %5, ptr @CurrentMemoryContext, align 8
  %7 = getelementptr inbounds nuw i8, ptr %0, i64 104
  %8 = load ptr, ptr %7, align 8
  %9 = tail call ptr @heap_copytuple(ptr noundef %1) #12
  store ptr %9, ptr %3, align 8
  %10 = getelementptr inbounds nuw i8, ptr %0, i64 72
  %11 = load i8, ptr %10, align 8, !range !4, !noundef !5
  %12 = trunc nuw i8 %11 to i1
  br i1 %12, label %13, label %23

13:                                               ; preds = %2
  %14 = getelementptr inbounds nuw i8, ptr %8, i64 8
  %15 = load ptr, ptr %14, align 8
  %16 = getelementptr inbounds nuw i8, ptr %15, i64 12
  %17 = load i16, ptr %16, align 4
  %18 = sext i16 %17 to i32
  %19 = load ptr, ptr %8, align 8
  %20 = getelementptr inbounds nuw i8, ptr %3, i64 16
  %21 = call fastcc i64 @heap_getattr(ptr noundef %9, i32 noundef %18, ptr noundef %19, ptr noundef nonnull %20)
  %22 = getelementptr inbounds nuw i8, ptr %3, i64 8
  store i64 %21, ptr %22, align 8
  br label %23

23:                                               ; preds = %13, %2
  %24 = getelementptr inbounds nuw i8, ptr %0, i64 96
  %25 = load i32, ptr %24, align 8
  %26 = and i32 %25, 2
  %27 = icmp eq i32 %26, 0
  br i1 %27, label %28, label %33

28:                                               ; preds = %23
  %29 = load i32, ptr %9, align 8
  %30 = zext i32 %29 to i64
  %31 = add nuw nsw i64 %30, 31
  %32 = and i64 %31, 8589934584
  br label %35

33:                                               ; preds = %23
  %34 = call i64 @GetMemoryChunkSpace(ptr noundef %9) #12
  br label %35

35:                                               ; preds = %33, %28
  %.0 = phi i64 [ %32, %28 ], [ %34, %33 ]
  %36 = load i8, ptr %10, align 8, !range !4, !noundef !5
  %37 = trunc nuw i8 %36 to i1
  br i1 %37, label %38, label %48

38:                                               ; preds = %35
  %39 = getelementptr inbounds nuw i8, ptr %0, i64 80
  %40 = load ptr, ptr %39, align 8
  %41 = getelementptr inbounds nuw i8, ptr %40, i64 40
  %42 = load ptr, ptr %41, align 8
  %.not = icmp eq ptr %42, null
  br i1 %.not, label %48, label %43

43:                                               ; preds = %38
  %44 = getelementptr inbounds nuw i8, ptr %3, i64 16
  %45 = load i8, ptr %44, align 8, !range !4, !noundef !5
  %46 = trunc nuw i8 %45 to i1
  %47 = xor i1 %46, true
  br label %48

48:                                               ; preds = %43, %38, %35
  %49 = phi i1 [ false, %38 ], [ false, %35 ], [ %47, %43 ]
  call void @tuplesort_puttuple_common(ptr noundef nonnull %0, ptr noundef nonnull %3, i1 noundef zeroext %49, i64 noundef %.0) #12
  store ptr %6, ptr @CurrentMemoryContext, align 8
  call void @llvm.lifetime.end.p0(i64 24, ptr nonnull %3) #12
  ret void
}